; ModuleID = '9/661.c'
source_filename = "9/661.c"
target datalayout = "e-m:e-p270:32:32-p271:32:32-p272:64:64-i64:64-f80:128-n8:16:32:64-S128"
target triple = "x86_64-pc-linux-gnu"

%struct.patient = type { [10 x i8], i32 }

@.str = private unnamed_addr constant [3 x i8] c"%d\00", align 1
@.str.1 = private unnamed_addr constant [5 x i8] c"%s%d\00", align 1
@.str.2 = private unnamed_addr constant [4 x i8] c"%s\0A\00", align 1

; Function Attrs: noinline nounwind uwtable
define dso_local i32 @main() #0 {
  %1 = alloca i32, align 4
  %2 = alloca i32, align 4
  %3 = alloca i32, align 4
  %4 = alloca i32, align 4
  %5 = alloca i32, align 4
  %6 = alloca i32, align 4
  %7 = alloca [101 x %struct.patient], align 16
  store i32 0, i32* %1, align 4
  store i32 1, i32* %4, align 4
  %8 = call i32 (i8*, ...) @__isoc99_scanf(i8* getelementptr inbounds ([3 x i8], [3 x i8]* @.str, i64 0, i64 0), i32* %5)
  store i32 1, i32* %6, align 4
  br label %9

9:                                                ; preds = %24, %0
  %10 = load i32, i32* %6, align 4
  %11 = load i32, i32* %5, align 4
  %12 = icmp sle i32 %10, %11
  br i1 %12, label %13, label %27

13:                                               ; preds = %9
  %14 = load i32, i32* %6, align 4
  %15 = sext i32 %14 to i64
  %16 = getelementptr inbounds [101 x %struct.patient], [101 x %struct.patient]* %7, i64 0, i64 %15
  %17 = getelementptr inbounds %struct.patient, %struct.patient* %16, i32 0, i32 0
  %18 = getelementptr inbounds [10 x i8], [10 x i8]* %17, i64 0, i64 0
  %19 = load i32, i32* %6, align 4
  %20 = sext i32 %19 to i64
  %21 = getelementptr inbounds [101 x %struct.patient], [101 x %struct.patient]* %7, i64 0, i64 %20
  %22 = getelementptr inbounds %struct.patient, %struct.patient* %21, i32 0, i32 1
  %23 = call i32 (i8*, ...) @__isoc99_scanf(i8* getelementptr inbounds ([5 x i8], [5 x i8]* @.str.1, i64 0, i64 0), i8* %18, i32* %22)
  br label %24

24:                                               ; preds = %13
  %25 = load i32, i32* %6, align 4
  %26 = add nsw i32 %25, 1
  store i32 %26, i32* %6, align 4
  br label %9

27:                                               ; preds = %9
  br label %28

28:                                               ; preds = %65, %27
  %29 = load i32, i32* %4, align 4
  %30 = icmp ne i32 %29, 0
  br i1 %30, label %31, label %70

31:                                               ; preds = %28
  store i32 59, i32* %3, align 4
  store i32 0, i32* %4, align 4
  store i32 1, i32* %6, align 4
  br label %32

32:                                               ; preds = %52, %31
  %33 = load i32, i32* %6, align 4
  %34 = load i32, i32* %5, align 4
  %35 = icmp sle i32 %33, %34
  br i1 %35, label %36, label %55

36:                                               ; preds = %32
  %37 = load i32, i32* %6, align 4
  %38 = sext i32 %37 to i64
  %39 = getelementptr inbounds [101 x %struct.patient], [101 x %struct.patient]* %7, i64 0, i64 %38
  %40 = getelementptr inbounds %struct.patient, %struct.patient* %39, i32 0, i32 1
  %41 = load i32, i32* %40, align 4
  %42 = load i32, i32* %3, align 4
  %43 = icmp sgt i32 %41, %42
  br i1 %43, label %44, label %51

44:                                               ; preds = %36
  %45 = load i32, i32* %6, align 4
  %46 = sext i32 %45 to i64
  %47 = getelementptr inbounds [101 x %struct.patient], [101 x %struct.patient]* %7, i64 0, i64 %46
  %48 = getelementptr inbounds %struct.patient, %struct.patient* %47, i32 0, i32 1
  %49 = load i32, i32* %48, align 4
  store i32 %49, i32* %3, align 4
  %50 = load i32, i32* %6, align 4
  store i32 %50, i32* %4, align 4
  br label %51

51:                                               ; preds = %44, %36
  br label %52

52:                                               ; preds = %51
  %53 = load i32, i32* %6, align 4
  %54 = add nsw i32 %53, 1
  store i32 %54, i32* %6, align 4
  br label %32

55:                                               ; preds = %32
  %56 = load i32, i32* %4, align 4
  %57 = icmp ne i32 %56, 0
  br i1 %57, label %58, label %65

58:                                               ; preds = %55
  %59 = load i32, i32* %4, align 4
  %60 = sext i32 %59 to i64
  %61 = getelementptr inbounds [101 x %struct.patient], [101 x %struct.patient]* %7, i64 0, i64 %60
  %62 = getelementptr inbounds %struct.patient, %struct.patient* %61, i32 0, i32 0
  %63 = getelementptr inbounds [10 x i8], [10 x i8]* %62, i64 0, i64 0
  %64 = call i32 (i8*, ...) @printf(i8* getelementptr inbounds ([4 x i8], [4 x i8]* @.str.2, i64 0, i64 0), i8* %63)
  br label %65

65:                                               ; preds = %58, %55
  %66 = load i32, i32* %4, align 4
  %67 = sext i32 %66 to i64
  %68 = getelementptr inbounds [101 x %struct.patient], [101 x %struct.patient]* %7, i64 0, i64 %67
  %69 = getelementptr inbounds %struct.patient, %struct.patient* %68, i32 0, i32 1
  store i32 0, i32* %69, align 4
  br label %28

70:                                               ; preds = %28
  store i32 1, i32* %6, align 4
  br label %71

71:                                               ; preds = %90, %70
  %72 = load i32, i32* %6, align 4
  %73 = load i32, i32* %5, align 4
  %74 = icmp sle i32 %72, %73
  br i1 %74, label %75, label %93

75:                                               ; preds = %71
  %76 = load i32, i32* %6, align 4
  %77 = sext i32 %76 to i64
  %78 = getelementptr inbounds [101 x %struct.patient], [101 x %struct.patient]* %7, i64 0, i64 %77
  %79 = getelementptr inbounds %struct.patient, %struct.patient* %78, i32 0, i32 1
  %80 = load i32, i32* %79, align 4
  %81 = icmp ne i32 %80, 0
  br i1 %81, label %82, label %89

82:                                               ; preds = %75
  %83 = load i32, i32* %6, align 4
  %84 = sext i32 %83 to i64
  %85 = getelementptr inbounds [101 x %struct.patient], [101 x %struct.patient]* %7, i64 0, i64 %84
  %86 = getelementptr inbounds %struct.patient, %struct.patient* %85, i32 0, i32 0
  %87 = getelementptr inbounds [10 x i8], [10 x i8]* %86, i64 0, i64 0
  %88 = call i32 (i8*, ...) @printf(i8* getelementptr inbounds ([4 x i8], [4 x i8]* @.str.2, i64 0, i64 0), i8* %87)
  br label %89

89:                                               ; preds = %82, %75
  br label %90

90:                                               ; preds = %89
  %91 = load i32, i32* %6, align 4
  %92 = add nsw i32 %91, 1
  store i32 %92, i32* %6, align 4
  br label %71

93:                                               ; preds = %71
  %94 = load i32, i32* %1, align 4
  ret i32 %94
}

declare dso_local i32 @__isoc99_scanf(i8*, ...) #1

declare dso_local i32 @printf(i8*, ...) #1


!llvm.module.flags = !{!0}
!llvm.ident = !{!1}

!0 = !{i32 1, !"wchar_size", i32 4}
!1 = !{!"clang version 10.0.0-4ubuntu1 "}
